target datalayout = "e-m:e-p270:32:32-p271:32:32-p272:64:64-i64:64-i128:128-f80:128-n8:16:32:64-S128"
target triple = "x86_64-pc-linux-gnu"

%struct.Gia_Man_t_ = type { ptr, ptr, i32, i32, i32, i32, ptr, ptr, i32, i32, i32, ptr, ptr, %struct.Vec_Int_t_, %struct.Vec_Int_t_, i32, i32, i32, %struct.Vec_Int_t_, ptr, ptr, ptr, i32, i32, i32, i32, ptr, ptr, ptr, ptr, ptr, i32, i32, ptr, i32, ptr, ptr, ptr, ptr, ptr, ptr, ptr, ptr, ptr, ptr, ptr, ptr, ptr, ptr, ptr, ptr, ptr, ptr, %struct.Vec_Int_t_, %struct.Vec_Int_t_, ptr, ptr, ptr, ptr, ptr, ptr, ptr, ptr, ptr, ptr, ptr, ptr, ptr, ptr, ptr, ptr, ptr, ptr, ptr, ptr, ptr, i32, float, float, ptr, ptr, i32, ptr, ptr, ptr, ptr, ptr, ptr, ptr, ptr, ptr, ptr, ptr, ptr, ptr, ptr, ptr, i64, i64, ptr, ptr, i32, i32, i32, i32, i32, i32, i32, i32, i32, i32, i32, i32, ptr, ptr, ptr, ptr, ptr, ptr, ptr, ptr, i32, i32, i32, ptr, i32, i32, ptr, ptr, ptr, ptr, ptr, ptr, i32, i32, ptr, %struct.Vec_Int_t_, %struct.Vec_Int_t_, %struct.Vec_Int_t_, ptr, ptr, ptr, i32, i32, i32, i32, ptr, ptr, ptr, ptr, ptr }
%struct.Vec_Int_t_ = type { i32, i32, ptr }
%struct.Cnf_Dat_t_ = type { ptr, i32, i32, i32, ptr, ptr, ptr, ptr, ptr, ptr }
%struct.sat_solver_t = type { i32, i32, i32, i32, %struct.Sat_Mem_t_, i32, i32, ptr, ptr, i32, i32, i32, i32, i32, i64, i64, i64, ptr, ptr, i32, i32, %struct.veci_t, ptr, i32, ptr, ptr, ptr, ptr, ptr, ptr, ptr, ptr, %struct.veci_t, %struct.veci_t, %struct.veci_t, %struct.veci_t, ptr, %struct.veci_t, i32, i32, i32, double, double, i32, i32, i32, %struct.stats_t, i32, i32, i32, i32, i32, i64, i64, i64, %struct.veci_t, ptr, i32, i32, i32, %struct.veci_t, %struct.veci_t, i32, i32, i32, ptr, ptr, i32, ptr, i32, i32, %struct.veci_t, %struct.veci_t, %struct.veci_t, ptr, ptr, i32, ptr }
%struct.Sat_Mem_t_ = type { [2 x i32], [2 x i32], [2 x i32], [2 x i32], i32, i32, i32, i32, ptr }
%struct.stats_t = type { i32, i32, i32, i64, i64, i64, i64, i64, i64, i64 }
%struct.veci_t = type { i32, i32, ptr }
%struct.timespec = type { i64, i64 }

; Function Attrs: inlinehint nounwind uwtable
define internal i64 @sat_solver_set_runtime_limit(ptr noundef %0, i64 noundef %1) #4 {
  %3 = alloca ptr, align 8
  %4 = alloca i64, align 8
  %5 = alloca i64, align 8
  store ptr %0, ptr %3, align 8, !tbaa !48
  store i64 %1, ptr %4, align 8, !tbaa !70
  call void @llvm.lifetime.start.p0(i64 8, ptr %5) #12
  %6 = load ptr, ptr %3, align 8, !tbaa !48
  %7 = getelementptr inbounds nuw %struct.sat_solver_t, ptr %6, i32 0, i32 54
  %8 = load i64, ptr %7, align 8, !tbaa !125
  store i64 %8, ptr %5, align 8, !tbaa !70
  %9 = load i64, ptr %4, align 8, !tbaa !70
  %10 = load ptr, ptr %3, align 8, !tbaa !48
  %11 = getelementptr inbounds nuw %struct.sat_solver_t, ptr %10, i32 0, i32 54
  store i64 %9, ptr %11, align 8, !tbaa !125
  %12 = load i64, ptr %5, align 8, !tbaa !70
  call void @llvm.lifetime.end.p0(i64 8, ptr %5) #12
  ret i64 %12
}

; Function Attrs: inlinehint nounwind uwtable
define internal i64 @Abc_Clock() #4 {
  %1 = alloca i64, align 8
  %2 = alloca %struct.timespec, align 8
  %3 = alloca i32, align 4
  %4 = alloca i64, align 8
  call void @llvm.lifetime.start.p0(i64 16, ptr %2) #12
  %5 = call i32 @clock_gettime(i32 noundef 1, ptr noundef %2) #12
  %6 = icmp slt i32 %5, 0
  br i1 %6, label %7, label %8

7:                                                ; preds = %0
  store i64 -1, ptr %1, align 8
  store i32 1, ptr %3, align 4
  br label %19

8:                                                ; preds = %0
  call void @llvm.lifetime.start.p0(i64 8, ptr %4) #12
  %9 = getelementptr inbounds nuw %struct.timespec, ptr %2, i32 0, i32 0
  %10 = load i64, ptr %9, align 8, !tbaa !118
  %11 = mul nsw i64 %10, 1000000
  store i64 %11, ptr %4, align 8, !tbaa !70
  %12 = getelementptr inbounds nuw %struct.timespec, ptr %2, i32 0, i32 1
  %13 = load i64, ptr %12, align 8, !tbaa !120
  %14 = mul nsw i64 %13, 1000000
  %15 = sdiv i64 %14, 1000000000
  %16 = load i64, ptr %4, align 8, !tbaa !70
  %17 = add nsw i64 %16, %15
  store i64 %17, ptr %4, align 8, !tbaa !70
  %18 = load i64, ptr %4, align 8, !tbaa !70
  store i64 %18, ptr %1, align 8
  store i32 1, ptr %3, align 4
  call void @llvm.lifetime.end.p0(i64 8, ptr %4) #12
  br label %19

19:                                               ; preds = %8, %7
  call void @llvm.lifetime.end.p0(i64 16, ptr %2) #12
  %20 = load i64, ptr %1, align 8
  ret i64 %20
}

; Function Attrs: inlinehint nounwind uwtable
define internal ptr @Cec_GiaDeriveSolver(ptr noundef %0, ptr noundef %1, i32 noundef %2) #4 {
  %4 = alloca ptr, align 8
  %5 = alloca ptr, align 8
  %6 = alloca ptr, align 8
  %7 = alloca i32, align 4
  %8 = alloca ptr, align 8
  %9 = alloca i32, align 4
  %10 = alloca i32, align 4
  store ptr %0, ptr %5, align 8, !tbaa !3
  store ptr %1, ptr %6, align 8, !tbaa !46
  store i32 %2, ptr %7, align 4, !tbaa !8
  call void @llvm.lifetime.start.p0(i64 8, ptr %8) #12
  call void @llvm.lifetime.start.p0(i64 4, ptr %9) #12
  %11 = call ptr @sat_solver_new()
  store ptr %11, ptr %8, align 8, !tbaa !48
  %12 = load ptr, ptr %8, align 8, !tbaa !48
  %13 = load ptr, ptr %6, align 8, !tbaa !46
  %14 = getelementptr inbounds nuw %struct.Cnf_Dat_t_, ptr %13, i32 0, i32 1
  %15 = load i32, ptr %14, align 8, !tbaa !121
  call void @sat_solver_setnvars(ptr noundef %12, i32 noundef %15)
  store i32 0, ptr %9, align 4, !tbaa !8
  br label %16

16:                                               ; preds = %44, %3
  %17 = load i32, ptr %9, align 4, !tbaa !8
  %18 = load ptr, ptr %6, align 8, !tbaa !46
  %19 = getelementptr inbounds nuw %struct.Cnf_Dat_t_, ptr %18, i32 0, i32 3
  %20 = load i32, ptr %19, align 8, !tbaa !122
  %21 = icmp slt i32 %17, %20
  br i1 %21, label %22, label %47

22:                                               ; preds = %16
  %23 = load ptr, ptr %8, align 8, !tbaa !48
  %24 = load ptr, ptr %6, align 8, !tbaa !46
  %25 = getelementptr inbounds nuw %struct.Cnf_Dat_t_, ptr %24, i32 0, i32 4
  %26 = load ptr, ptr %25, align 8, !tbaa !123
  %27 = load i32, ptr %9, align 4, !tbaa !8
  %28 = sext i32 %27 to i64
  %29 = getelementptr inbounds ptr, ptr %26, i64 %28
  %30 = load ptr, ptr %29, align 8, !tbaa !37
  %31 = load ptr, ptr %6, align 8, !tbaa !46
  %32 = getelementptr inbounds nuw %struct.Cnf_Dat_t_, ptr %31, i32 0, i32 4
  %33 = load ptr, ptr %32, align 8, !tbaa !123
  %34 = load i32, ptr %9, align 4, !tbaa !8
  %35 = add nsw i32 %34, 1
  %36 = sext i32 %35 to i64
  %37 = getelementptr inbounds ptr, ptr %33, i64 %36
  %38 = load ptr, ptr %37, align 8, !tbaa !37
  %39 = call i32 @sat_solver_addclause(ptr noundef %23, ptr noundef %30, ptr noundef %38)
  %40 = icmp ne i32 %39, 0
  br i1 %40, label %43, label %41

41:                                               ; preds = %22
  %42 = load ptr, ptr %8, align 8, !tbaa !48
  call void @sat_solver_delete(ptr noundef %42)
  store ptr null, ptr %4, align 8
  store i32 1, ptr %10, align 4
  br label %62

43:                                               ; preds = %22
  br label %44

44:                                               ; preds = %43
  %45 = load i32, ptr %9, align 4, !tbaa !8
  %46 = add nsw i32 %45, 1
  store i32 %46, ptr %9, align 4, !tbaa !8
  br label %16, !llvm.loop !124

47:                                               ; preds = %16
  %48 = load ptr, ptr %8, align 8, !tbaa !48
  %49 = load i32, ptr %7, align 4, !tbaa !8
  %50 = icmp ne i32 %49, 0
  br i1 %50, label %51, label %57

51:                                               ; preds = %47
  %52 = load i32, ptr %7, align 4, !tbaa !8
  %53 = sext i32 %52 to i64
  %54 = mul nsw i64 %53, 1000000
  %55 = call i64 @Abc_Clock()
  %56 = add nsw i64 %54, %55
  br label %58

57:                                               ; preds = %47
  br label %58

58:                                               ; preds = %57, %51
  %59 = phi i64 [ %56, %51 ], [ 0, %57 ]
  %60 = call i64 @sat_solver_set_runtime_limit(ptr noundef %48, i64 noundef %59)
  %61 = load ptr, ptr %8, align 8, !tbaa !48
  store ptr %61, ptr %4, align 8
  store i32 1, ptr %10, align 4
  br label %62

62:                                               ; preds = %58, %41
  call void @llvm.lifetime.end.p0(i64 4, ptr %9) #12
  call void @llvm.lifetime.end.p0(i64 8, ptr %8) #12
  %63 = load ptr, ptr %4, align 8
  ret ptr %63
}

; Function Attrs: inlinehint nounwind uwtable
define internal i32 @Cnf_GiaSolveOne(ptr noundef %0, ptr noundef %1, i32 noundef %2, ptr noundef %3, ptr noundef %4) #4 {
  %6 = alloca i32, align 4
  %7 = alloca ptr, align 8
  %8 = alloca ptr, align 8
  %9 = alloca i32, align 4
  %10 = alloca ptr, align 8
  %11 = alloca ptr, align 8
  %12 = alloca i32, align 4
  %13 = alloca ptr, align 8
  %14 = alloca i32, align 4
  store ptr %0, ptr %7, align 8, !tbaa !3
  store ptr %1, ptr %8, align 8, !tbaa !46
  store i32 %2, ptr %9, align 4, !tbaa !8
  store ptr %3, ptr %10, align 8, !tbaa !37
  store ptr %4, ptr %11, align 8, !tbaa !37
  call void @llvm.lifetime.start.p0(i64 4, ptr %12) #12
  call void @llvm.lifetime.start.p0(i64 8, ptr %13) #12
  %15 = load ptr, ptr %7, align 8, !tbaa !3
  %16 = load ptr, ptr %8, align 8, !tbaa !46
  %17 = load i32, ptr %9, align 4, !tbaa !8
  %18 = call ptr @Cec_GiaDeriveSolver(ptr noundef %15, ptr noundef %16, i32 noundef %17)
  store ptr %18, ptr %13, align 8, !tbaa !48
  %19 = load ptr, ptr %13, align 8, !tbaa !48
  %20 = icmp eq ptr %19, null
  br i1 %20, label %21, label %24

21:                                               ; preds = %5
  %22 = load ptr, ptr %10, align 8, !tbaa !37
  store i32 0, ptr %22, align 4, !tbaa !8
  %23 = load ptr, ptr %11, align 8, !tbaa !37
  store i32 0, ptr %23, align 4, !tbaa !8
  store i32 1, ptr %6, align 4
  store i32 1, ptr %14, align 4
  br label %52

24:                                               ; preds = %5
  %25 = load ptr, ptr %13, align 8, !tbaa !48
  %26 = call i32 @sat_solver_solve(ptr noundef %25, ptr noundef null, ptr noundef null, i64 noundef 0, i64 noundef 0, i64 noundef 0, i64 noundef 0)
  store i32 %26, ptr %12, align 4, !tbaa !8
  %27 = load ptr, ptr %13, align 8, !tbaa !48
  %28 = call i32 @sat_solver_nvars(ptr noundef %27)
  %29 = load ptr, ptr %10, align 8, !tbaa !37
  store i32 %28, ptr %29, align 4, !tbaa !8
  %30 = load ptr, ptr %13, align 8, !tbaa !48
  %31 = call i32 @sat_solver_nconflicts(ptr noundef %30)
  %32 = load ptr, ptr %11, align 8, !tbaa !37
  store i32 %31, ptr %32, align 4, !tbaa !8
  %33 = load i32, ptr %12, align 4, !tbaa !8
  %34 = icmp eq i32 %33, 1
  br i1 %34, label %35, label %42

35:                                               ; preds = %24
  %36 = load ptr, ptr %7, align 8, !tbaa !3
  %37 = load ptr, ptr %8, align 8, !tbaa !46
  %38 = load ptr, ptr %13, align 8, !tbaa !48
  %39 = call ptr @Cec_SplitDeriveModel(ptr noundef %36, ptr noundef %37, ptr noundef %38)
  %40 = load ptr, ptr %7, align 8, !tbaa !3
  %41 = getelementptr inbounds nuw %struct.Gia_Man_t_, ptr %40, i32 0, i32 50
  store ptr %39, ptr %41, align 8, !tbaa !75
  br label %42

42:                                               ; preds = %35, %24
  %43 = load ptr, ptr %13, align 8, !tbaa !48
  call void @sat_solver_delete(ptr noundef %43)
  %44 = load i32, ptr %12, align 4, !tbaa !8
  %45 = icmp eq i32 %44, 0
  br i1 %45, label %46, label %47

46:                                               ; preds = %42
  store i32 -1, ptr %6, align 4
  store i32 1, ptr %14, align 4
  br label %52

47:                                               ; preds = %42
  %48 = load i32, ptr %12, align 4, !tbaa !8
  %49 = icmp eq i32 %48, -1
  br i1 %49, label %50, label %51

50:                                               ; preds = %47
  store i32 1, ptr %6, align 4
  store i32 1, ptr %14, align 4
  br label %52

51:                                               ; preds = %47
  store i32 0, ptr %6, align 4
  store i32 1, ptr %14, align 4
  br label %52

52:                                               ; preds = %51, %50, %46, %21
  call void @llvm.lifetime.end.p0(i64 8, ptr %13) #12
  call void @llvm.lifetime.end.p0(i64 4, ptr %12) #12
  %53 = load i32, ptr %6, align 4
  ret i32 %53
}