; Function Attrs: inlinehint nounwind uwtable
define internal fastcc range(i32 -1, 2) i32 @Cnf_GiaSolveOne(ptr noundef captures(none) %0, ptr noundef readonly captures(none) %1, i32 noundef %2, ptr noundef writeonly captures(none) %3, ptr noundef writeonly captures(none) %4) unnamed_addr #6 {
  %6 = alloca %struct.timespec, align 8
  %7 = tail call ptr @sat_solver_new() #18
  %8 = getelementptr inbounds nuw i8, ptr %1, i64 8
  %9 = load i32, ptr %8, align 8, !tbaa !81
  tail call void @sat_solver_setnvars(ptr noundef %7, i32 noundef %9) #18
  %10 = getelementptr inbounds nuw i8, ptr %1, i64 16
  %11 = getelementptr inbounds nuw i8, ptr %1, i64 24
  br label %12

12:                                               ; preds = %16, %5
  %indvars.iv.i = phi i64 [ %indvars.iv.next.i, %16 ], [ 0, %5 ]
  %13 = load i32, ptr %10, align 8, !tbaa !82
  %14 = sext i32 %13 to i64
  %15 = icmp slt i64 %indvars.iv.i, %14
  br i1 %15, label %16, label %23

16:                                               ; preds = %12
  %17 = load ptr, ptr %11, align 8, !tbaa !83
  %18 = getelementptr inbounds nuw ptr, ptr %17, i64 %indvars.iv.i
  %19 = load ptr, ptr %18, align 8, !tbaa !84
  %indvars.iv.next.i = add nuw nsw i64 %indvars.iv.i, 1
  %20 = getelementptr inbounds nuw ptr, ptr %17, i64 %indvars.iv.next.i
  %21 = load ptr, ptr %20, align 8, !tbaa !84
  %22 = tail call i32 @sat_solver_addclause(ptr noundef %7, ptr noundef %19, ptr noundef %21) #18
  %.not17.i = icmp eq i32 %22, 0
  br i1 %.not17.i, label %37, label %12, !llvm.loop !85

23:                                               ; preds = %12
  %.not.i = icmp eq i32 %2, 0
  br i1 %.not.i, label %38, label %24

24:                                               ; preds = %23
  %25 = sext i32 %2 to i64
  %26 = mul nsw i64 %25, 1000000
  call void @llvm.lifetime.start.p0(i64 16, ptr nonnull %6) #18
  %27 = call i32 @clock_gettime(i32 noundef 1, ptr noundef nonnull %6) #18
  %28 = icmp slt i32 %27, 0
  br i1 %28, label %Abc_Clock.exit.i, label %29

29:                                               ; preds = %24
  %30 = load i64, ptr %6, align 8, !tbaa !63
  %31 = mul nsw i64 %30, 1000000
  %32 = getelementptr inbounds nuw i8, ptr %6, i64 8
  %33 = load i64, ptr %32, align 8, !tbaa !65
  %34 = sdiv i64 %33, 1000
  %35 = add nsw i64 %34, %31
  br label %Abc_Clock.exit.i

Abc_Clock.exit.i:                                 ; preds = %29, %24
  %.0.i.i = phi i64 [ %35, %29 ], [ -1, %24 ]
  call void @llvm.lifetime.end.p0(i64 16, ptr nonnull %6) #18
  %36 = add nsw i64 %.0.i.i, %26
  br label %38

37:                                               ; preds = %16
  tail call void @sat_solver_delete(ptr noundef %7) #18
  store i32 0, ptr %3, align 4, !tbaa !30
  store i32 0, ptr %4, align 4, !tbaa !30
  br label %49

38:                                               ; preds = %Abc_Clock.exit.i, %23
  %39 = phi i64 [ %36, %Abc_Clock.exit.i ], [ 0, %23 ]
  %40 = getelementptr inbounds nuw i8, ptr %7, i64 512
  store i64 %39, ptr %40, align 8, !tbaa !86
  %41 = call i32 @sat_solver_solve(ptr noundef nonnull %7, ptr noundef null, ptr noundef null, i64 noundef 0, i64 noundef 0, i64 noundef 0, i64 noundef 0) #18
  %42 = call i32 @sat_solver_nvars(ptr noundef nonnull %7) #18
  store i32 %42, ptr %3, align 4, !tbaa !30
  %43 = call i32 @sat_solver_nconflicts(ptr noundef nonnull %7) #18
  store i32 %43, ptr %4, align 4, !tbaa !30
  %44 = icmp eq i32 %41, 1
  br i1 %44, label %45, label %48

45:                                               ; preds = %38
  %46 = call ptr @Cec_SplitDeriveModel(ptr noundef %0, ptr noundef nonnull %1, ptr noundef nonnull %7)
  %47 = getelementptr inbounds nuw i8, ptr %0, i64 368
  store ptr %46, ptr %47, align 8, !tbaa !78
  br label %48

48:                                               ; preds = %45, %38
  call void @sat_solver_delete(ptr noundef nonnull %7) #18
  %switch.selectcmp = icmp eq i32 %41, -1
  %switch.select = zext i1 %switch.selectcmp to i32
  %switch.selectcmp21 = icmp eq i32 %41, 0
  %switch.select22 = select i1 %switch.selectcmp21, i32 -1, i32 %switch.select
  br label %49

49:                                               ; preds = %48, %37
  %.0 = phi i32 [ 1, %37 ], [ %switch.select22, %48 ]
  ret i32 %.0
}